; Function Attrs: nounwind uwtable
define dso_local range(i64 0, 2) i64 @timestamptz_lt_date(ptr noundef readonly captures(none) %0) local_unnamed_addr #0 {
  %2 = alloca %struct.pg_tm, align 8
  %3 = getelementptr inbounds nuw i8, ptr %0, i64 32
  %4 = load i64, ptr %3, align 8
  %5 = getelementptr inbounds nuw i8, ptr %0, i64 48
  %6 = load i64, ptr %5, align 8
  %7 = trunc i64 %6 to i32
  call void @llvm.lifetime.start.p0(i64 56, ptr nonnull %2) #16
  switch i32 %7, label %9 [
    i32 -2147483648, label %34
    i32 2147483647, label %8
  ]

8:                                                ; preds = %1
  br label %34

9:                                                ; preds = %1
  %10 = icmp sgt i32 %7, 106751982
  br i1 %10, label %28, label %11

11:                                               ; preds = %9
  %12 = add nsw i32 %7, 2451545
  %13 = getelementptr inbounds nuw i8, ptr %2, i64 20
  %14 = getelementptr inbounds nuw i8, ptr %2, i64 16
  %15 = getelementptr inbounds nuw i8, ptr %2, i64 12
  call void @j2date(i32 noundef %12, ptr noundef nonnull %13, ptr noundef nonnull %14, ptr noundef nonnull %15) #16
  %16 = getelementptr inbounds nuw i8, ptr %2, i64 8
  store i32 0, ptr %16, align 8
  %17 = getelementptr inbounds nuw i8, ptr %2, i64 4
  store i32 0, ptr %17, align 4
  store i32 0, ptr %2, align 8
  %18 = load ptr, ptr @session_timezone, align 8
  %19 = call i32 @DetermineTimeZoneOffset(ptr noundef nonnull %2, ptr noundef %18) #16
  %sext = shl i64 %6, 32
  %20 = ashr exact i64 %sext, 32
  %21 = mul i64 %20, 86400000000
  %22 = sext i32 %19 to i64
  %23 = mul nsw i64 %22, 1000000
  %24 = add i64 %23, %21
  %25 = add i64 %24, 211813488000000000
  %or.cond.i.i = icmp ult i64 %25, -9011559254509551616
  br i1 %or.cond.i.i, label %34, label %26

26:                                               ; preds = %11
  %27 = icmp slt i64 %24, -211813488000000000
  br i1 %27, label %31, label %28

28:                                               ; preds = %26, %9
  call void @llvm.lifetime.end.p0(i64 56, ptr nonnull %2) #16
  %29 = icmp eq i64 %4, 9223372036854775807
  %30 = select i1 %29, i32 -1, i32 1
  br label %date_cmp_timestamptz_internal.exit

31:                                               ; preds = %26
  call void @llvm.lifetime.end.p0(i64 56, ptr nonnull %2) #16
  %32 = icmp eq i64 %4, -9223372036854775808
  %33 = select i1 %32, i32 1, i32 -1
  br label %date_cmp_timestamptz_internal.exit

34:                                               ; preds = %11, %8, %1
  %.0.i.ph.ph.i = phi i64 [ 9223372036854775807, %8 ], [ %24, %11 ], [ -9223372036854775808, %1 ]
  call void @llvm.lifetime.end.p0(i64 56, ptr nonnull %2) #16
  %35 = call i32 @timestamp_cmp_internal(i64 noundef %.0.i.ph.ph.i, i64 noundef %4) #16
  br label %date_cmp_timestamptz_internal.exit

date_cmp_timestamptz_internal.exit:               ; preds = %28, %31, %34
  %.0.i = phi i32 [ %30, %28 ], [ %33, %31 ], [ %35, %34 ]
  %36 = icmp sgt i32 %.0.i, 0
  %37 = zext i1 %36 to i64
  ret i64 %37
}